(dp1
S'output'
p2
S"<type 'exceptions.ImportError'> Cannot import module 'wolframalpha'"
p3
sS'layer'
p4
S'/home/www-data/web2py/applications/freebot/controllers/default.py'
p5
sS'code'
p6
S'# -*- coding: utf-8 -*-\n# this file is released under public domain and you can use without limitations\n\n#########################################################################\n## This is a sample controller\n## - index is the default action of any application\n## - user is required for authentication and authorization\n## - download is for downloading files uploaded in the db (does streaming)\n## - call exposes all registered services (none by default)\n#########################################################################\nimport os, bot_utils, signal, time, shutil\nfrom datetime import date, datetime, timedelta\n\n\niso = \'%Y-%m-%d\'\nday = timedelta(days=1)\n\n\n@auth.requires_membership(\'admin\')\ndef index():\n    """\n    example action using the internationalization operator T and flash\n    rendered by views/default/index.html or views/generic.html\n\n    if you need a simple wiki simple replace the two lines below with:\n    return auth.wiki()\n    """\n    #response.flash = "Test"\n    #return auth.wiki()\n    redirect(URL(\'bot_admin\'))\n    return dict()\n\n\n# def log():\n#     chan = request.vars.chan or \'brony\'\n#     chan = \'#\' + chan\n#     yesterday = datetime.today() - timedelta(days=1)\n#     y = request.vars.y or yesterday.year\n#     m = request.vars.m or yesterday.month\n#     d = request.vars.d or yesterday.day\n#     y = int(y)\n#     m = int(m)\n#     d = int(d)\n#     start = datetime(y, m, d)\n#     rows = db((db.event_log.event_target == chan) &\n#               (db.event_log.event_type == \'PRIVMSG\') &\n#               (db.event_log.event_time >= start)).select()\n#     return locals()\n\n@auth.requires_login()\ndef log():\n    response.view = "logs.html"  # web2py editor won\'t let me edit stats/log.html for some reason?\n\n    #q = request.vars.q or False\n    start_date = request.vars.start_date or False\n    end_date = request.vars.end_date or False\n    #chan = request.vars.chan or \'brony\'\n    chan = \'HotelReddit\'\n    #user = request.vars.user or False\n\n    today = date.today()\n    yesterday = today - day\n    tomorrow = today + day\n\n    if not start_date and not end_date:\n        # default to just the past 24 hrs\n        start_date = today\n        end_date = today\n    elif not start_date:\n        # default to end_date minus 24 hrs\n        start_date = end_date\n        end_date = datetime.strptime(end_date, iso)\n    elif not end_date:\n        # default to start_date plus 24 hrs\n        start_date = datetime.strptime(start_date, iso)\n        end_date = start_date + day\n    else:\n        # just parse dates as they are\n        end_date = datetime.strptime(end_date, iso)\n        start_date = datetime.strptime(start_date, iso)\n\n    form = FORM(TABLE(\n                      TR("Start date:", "End date:", ""),\n                      TR(INPUT(_name=\'start_date\', _type=\'date\', _value=start_date.strftime(iso)),\n                         INPUT(_name=\'end_date\', _type=\'date\', _value=end_date.strftime(iso)),\n                         SELECT(\'HotelReddit\', _name=\'chan\', value=chan),\n                         INPUT(_type=\'submit\'))\n                      ), _method=\'get\')\n\n    if end_date - start_date > timedelta(days=7):\n        response.flash = "Start and end dates must be within a week from each other"\n        rows = None\n        return locals()\n    if end_date < start_date:\n        response.flash = "Start date must be before end date"\n        rows = None\n        return locals()\n\n    chan = \'#\' + chan\n    msg_types = (\'PRIVMSG\', \'QUIT\', \'JOIN\', \'PART\', \'KICK\', \'CTCP_ACTION\', \'NICK\')\n    rows = db((db.event_log.event_target == chan) &\n              (db.event_log.event_type.belongs(msg_types)) &\n              (db.event_log.event_time >= start_date) &\n              (db.event_log.event_time <= end_date + day)).select()\n    #lastsql = db._lastsql\n\n    return locals()\n\n@auth.requires_login()\ndef search():\n    #response.view = "logs.html"  # web2py editor won\'t let me edit stats/log.html for some reason?\n    log = db.event_log\n    results = None\n    \n    msg_types = (\'PRIVMSG\', \'QUIT\', \'JOIN\', \'PART\', \'KICK\', \'CTCP_ACTION\', \'NICK\')\n\n    q = request.vars.q or ""\n    start_date = request.vars.start_date or False\n    end_date = request.vars.end_date or False\n    #chan = request.vars.chan or \'hard-light\'\n    user = request.vars.user or ""\n    chan = \'HotelReddit\'\n\n    today = date.today()\n    yesterday = today - day\n    tomorrow = today + day\n\n    if not start_date and not end_date:\n        # default to just the past 24 hrs\n        start_date = today\n        end_date = today\n    elif not start_date:\n        # default to end_date minus 24 hrs\n        start_date = end_date\n        end_date = datetime.strptime(end_date, iso)\n    elif not end_date:\n        # default to start_date plus 24 hrs\n        start_date = datetime.strptime(start_date, iso)\n        end_date = start_date + day\n    else:\n        # just parse dates as they are\n        end_date = datetime.strptime(end_date, iso)\n        start_date = datetime.strptime(start_date, iso)\n\n    form = FORM(TABLE(\n                      TR("Start date:", "End date:"),\n                      TR(INPUT(_name=\'start_date\', _type=\'date\', _value=start_date.strftime(iso)),\n                         INPUT(_name=\'end_date\', _type=\'date\', _value=end_date.strftime(iso)),\n                         #SELECT(\'hard-light\', \'scp\', \'freespace\', _name=\'chan\', value=chan),\n                         ),\n                      ),\n                TABLE(TR("Restrict to user: ", INPUT(_name=\'user\', _value=user), ""),\n                      TR("Search query: ", INPUT(_name=\'q\', _value=q), INPUT(_type=\'submit\'))\n                      ),\n                _method=\'get\')\n\n    #if end_date - start_date > timedelta(days=7):\n        #response.flash = "Start and end dates must be within a week from each other"\n        #rows = None\n        #return locals()\n    if end_date < start_date:\n        response.flash = "Start date must be before end date"\n        rows = None\n        return locals()\n\n    chan = \'#\' + chan\n    if q:\n        q = \'%%%s%%\' % q\n        q_q = log.event_message.like(q)\n    else:\n        results = None\n        return locals()\n    if user:\n        user = \'%%%s%%\' % user\n        q_user = log.event_source.like(user)\n    else:\n        q_user = log.event_source != \'\'\n    rows = db((log.event_target == chan) &\n              (log.event_type == \'PRIVMSG\') &\n              (log.event_time >= start_date) &\n              (log.event_time <= end_date + day) &\n              (q_q) & (q_user)\n              ).select()\n    if not rows.first():\n        results = None\n        return locals()\n    #all_privmsg = db((log.event_target == chan) &\n    #                 (log.event_type == \'PRIVMSG\') &\n    #                 (log.event_time >= start_date - day) &\n    #                 (log.event_time <= end_date + (2 * day))\n    #                 ).select().as_list(storage_to_dict=False)\n    \n    results = [[]]\n    cur_result = 0\n    prev_r = rows[0]\n    for i, r in enumerate(rows):\n        all_privmsg = db((log.event_target == chan) &\n                         (log.event_type == \'PRIVMSG\') &\n                         (log.event_time >= r.event_time - day) &\n                         (log.event_time <= r.event_time + day) &\n                         (log.id >= r.id - 200) &\n                         (log.id <= r.id + 200)\n                         ).select().as_list(storage_to_dict=False)\n        r_idx = all_privmsg.index(r)\n        prev_10 = all_privmsg[r_idx - 10:r_idx]\n        if prev_r in prev_10:  # guaranteed to be false for the first row\n            intervening_rows = db((log.event_target == chan) &\n                                  (log.event_type.belongs(msg_types)) &\n                                  (log.id > prev_r.id) &\n                                  (log.id <= r.id)\n                                  ).select()\n            results[cur_result] += intervening_rows\n            try:\n                id_limit = all_privmsg[r_idx + 10].id\n            except IndexError:\n                id_limit = all_privmsg[-1].id\n            next_10 = db((log.event_target == chan) &\n                         (log.event_type.belongs(msg_types)) &\n                         (log.id > r.id) &\n                         (log.id <= id_limit)\n                         ).select()\n        else:\n            if i > 0:\n                results[cur_result] += next_10\n                results.append([])\n                cur_result += 1\n            intervening_rows = db((log.event_target == chan) &\n                                  (log.event_type.belongs(msg_types)) &\n                                  (log.id >= prev_10[0].id) &\n                                  (log.id <= r.id)\n                                  ).select()\n            results[cur_result] += intervening_rows\n            try:\n                id_limit = all_privmsg[r_idx + 10].id\n            except IndexError:\n                id_limit = all_privmsg[-1].id\n            next_10 = db((log.event_target == chan) &\n                         (log.event_type.belongs(msg_types)) &\n                         (log.id > r.id) &\n                         (log.id <= id_limit)\n                         ).select()\n        prev_r = r\n\n    results[cur_result] += next_10\n\n    return locals()\n\n\n@auth.requires_membership(\'admin\')\ndef module_upload():\n    form = FORM(\n                INPUT(_name=\'upload\', _type=\'file\'),\n                INPUT(_name=\'existing\'),\n                INPUT(_type=\'submit\'),\n                )\n    out = dict(form=form)\n    if form.process().accepted:\n        modname = request.vars.existing\n        if not modname:\n            filename = request.vars.upload.filename\n            filename = os.path.basename(filename)\n            modname = filename.rsplit(\'.\', 1)[0]\n            if not filename.endswith(\'.py\'):\n                response.flash = "Module not a .py file"\n                return out\n            if len(db(db.bot_modules.name == modname).select()):\n                response.flash = "Module already exists"\n                return out\n            f = request.vars.upload.file\n            shutil.copyfileobj(f, open(\'applications/freebot/modules/\'+filename, \'wb\'))\n\n        new_mod = __import__(modname)\n        etype = \'PRIVMSG\'\n        new_mod.init(db)\n        db.bot_modules.insert(name=modname,\n                              description=new_mod.description,\n                              vars_pre=new_mod.prefix,\n                              event_type=etype,\n                              )\n        del new_mod\n\n        session.modname = modname\n        redirect(URL(\'module_update\'))\n    return out\n\n\n@auth.requires_membership(\'admin\')\ndef module_update():\n    if \'name\' not in request.vars:\n        modname = session.modname or redirect(URL(\'module_upload\'))\n    else:\n        modname = request.vars.name\n    this_mod = db(db.bot_modules.name == modname).select()\n    if this_mod is None:\n        redirect(URL(\'module_upload\'))\n    this_mod = this_mod.first()\n    f=SQLFORM(db.bot_modules, this_mod, deletable=True)\n    delete = 0  # view checks if this is in locals() before making the \'delete\' checkbox\n    modname = modname + \'.py\'\n    if f.validate():\n        if f.deleted:\n            old_mod = __import__(this_mod.name)\n            old_mod.remove(db)\n            db(db.bot_vars.tbl_k.startswith(this_mod.vars_pre)).delete()\n            db(db.bot_modules.name==this_mod.name).delete()\n            del old_mod\n            response.flash = "Module removed"\n        else:\n            this_mod.update_record(**dict(f.vars))\n            response.flash = "Module updated"\n    return locals()\n\n\n@auth.requires_membership(\'wheel\')\ndef bot_admin():\n    """\n    BotenAlfred admin panel\n\n    Will display whether or not bot is running (if pid exists and os.getpgid(pid)\n    (getpgid() will raise OSError if process doesn\'t exist)\n    Will give option to start bot if not running, stop bot if running (link to bot/default/bot_start or bot/default/bot_stop)\n    List all modules with edit button next to each (link to bot/default/bot_module/id)\n    List current bot configuration (server, port, channels, nickname, etc.), provide edit button (link to /bot/default/bot_edit)\n    """\n    ## Modules\n    #modules = list()\n    #for r in db().select(db.bot_modules.ALL):\n        #form = SQLFORM(db.bot_modules, r, formstyle=\'table3cols\')\n        #if form.process().accepted:\n            #response.flash = "Module updated"\n        #modules.append(form)\n        \n    modules = db().select(db.bot_modules.ALL)\n    \n    sets = dict(bot_settings=SQLTABLE(db().select(db.bot_vars.ALL)),\n                modules=modules)\n    \n    ## start/stop\n    if len(request.args) and request.args[0] == \'start\':\n        bot_pid = int(bot_utils.get_item(\'pid\', db))\n        if bot_pid:\n            try:\n                if os.getpgid(bot_pid):\n                    # bot already running\n                    response.flash = "Bot already running"\n                    return sets\n            except OSError:\n                pass\n        #if os.fork():\n            #time.sleep(2)\n            # Note: pid vars in db won\'t be updated until bot connects and joins channel,\n            # about 5 seconds.  Same for kill.\n            #apache_pid = os.getpid()\n            #db(db.bot_vars.tbl_k == \'apache_pid\').update(v=apache_pid)\n            #response.flash = "Bot started successfully"\n            #return sets\n        #else:\n            #os.system(\'python web2py.py -S bot -M -R applications/bot/private/bot_run.py\')\n            #os._exit(0)\n        os.system(\'rm ponybot_stdout.log\')\n        os.system(\'python web2py.py -S freebot -M -R applications/freebot/private/bot_run.py > freebot_stdout.log\')\n        return sets\n    elif len(request.args) and request.args[0] == \'stop\':\n        # There are four processes of interest when killing the bot\n        # The first two are the Python instance and the sh instance\n        # created by the call to os.system() (bot_pid and bot_ppid)\n        # Those processes are parented to a child of the apache thread\n        # that is created when we os.fork()\n        # That process exit()s on its own when the children are killed,\n        # but usually turns into a zombie process\n        # Killing the parent apache thread (which is then replaced by\n        # the apache daemon) cleans up the zombie process (apache_pid)\n        bot_pid = int(bot_utils.get_item(\'pid\', db))\n        bot_ppid = int(bot_utils.get_item(\'ppid\', db))\n        apache_pid = int(bot_utils.get_item(\'apache_pid\', db))\n        if bot_pid:\n            try:\n                os.kill(bot_pid, signal.SIGKILL)\n                #os.kill(bot_ppid, signal.SIGKILL)\n            except OSError:\n                response.flash = "No such process"\n            else:\n                response.flash = "Bot killed"\n            db(db.bot_vars.tbl_k == \'pid\').update(v=\'0\')\n            db(db.bot_vars.tbl_k == \'ppid\').update(v=\'0\')\n            #os.kill(apache_pid, signal.SIGKILL)  # Oops, since apache recycles threads, this may kill the thread that called this function\n            #db(db.bot_vars.tbl_k == \'apache_pid\').update(v=\'0\')\n            return sets\n        else:\n            response.flash = "Bot not running or pid not stored"\n            return sets\n    else:\n        return sets\n\n\ndef user():\n    """\n    exposes:\n    http://..../[app]/default/user/login\n    http://..../[app]/default/user/logout\n    http://..../[app]/default/user/register\n    http://..../[app]/default/user/profile\n    http://..../[app]/default/user/retrieve_password\n    http://..../[app]/default/user/change_password\n    http://..../[app]/default/user/manage_users (requires membership in\n    use @auth.requires_login()\n        @auth.requires_membership(\'group name\')\n        @auth.requires_permission(\'read\',\'table name\',record_id)\n    to decorate functions that need access control\n    """\n    return dict(form=auth())\n\n@cache.action()\ndef download():\n    """\n    allows downloading of uploaded files\n    http://..../[app]/default/download/[filename]\n    """\n    return response.download(request, db)\n\n\ndef call():\n    """\n    exposes services. for example:\n    http://..../[app]/default/call/jsonrpc\n    decorate with @services.jsonrpc the functions to expose\n    supports xml, json, xmlrpc, jsonrpc, amfrpc, rss, csv\n    """\n    return service()\n\n\n@auth.requires_signature()\ndef data():\n    """\n    http://..../[app]/default/data/tables\n    http://..../[app]/default/data/create/[table]\n    http://..../[app]/default/data/read/[table]/[id]\n    http://..../[app]/default/data/update/[table]/[id]\n    http://..../[app]/default/data/delete/[table]/[id]\n    http://..../[app]/default/data/select/[table]\n    http://..../[app]/default/data/search/[table]\n    but URLs must be signed, i.e. linked with\n      A(\'table\',_href=URL(\'data/tables\',user_signature=True))\n    or with the signed load operator\n      LOAD(\'default\',\'data.load\',args=\'tables\',ajax=True,user_signature=True)\n    """\n    return dict(form=crud())\n\nresponse._vars=response._caller(module_upload)\n'
p7
sS'snapshot'
p8
(dp9
S'exception'
p10
(dp11
S'__hash__'
p12
S"<method-wrapper '__hash__' of exceptions.ImportError object>"
p13
sS'__setattr__'
p14
S"<method-wrapper '__setattr__' of exceptions.ImportError object>"
p15
sS'__reduce_ex__'
p16
S'<built-in method __reduce_ex__ of exceptions.ImportError object>'
p17
sS'__getslice__'
p18
S"<method-wrapper '__getslice__' of exceptions.ImportError object>"
p19
sS'__getitem__'
p20
S"<method-wrapper '__getitem__' of exceptions.ImportError object>"
p21
sS'__setstate__'
p22
S'<built-in method __setstate__ of exceptions.ImportError object>'
p23
sS'args'
p24
S'("Cannot import module \'wolframalpha\'",)'
p25
sS'__reduce__'
p26
S'<built-in method __reduce__ of exceptions.ImportError object>'
p27
sS'__str__'
p28
S"<method-wrapper '__str__' of exceptions.ImportError object>"
p29
sS'__format__'
p30
S'<built-in method __format__ of exceptions.ImportError object>'
p31
sS'__getattribute__'
p32
S"<method-wrapper '__getattribute__' of exceptions.ImportError object>"
p33
sS'__class__'
p34
S"<type 'exceptions.ImportError'>"
p35
sS'__unicode__'
p36
S'<built-in method __unicode__ of exceptions.ImportError object>'
p37
sS'__delattr__'
p38
S"<method-wrapper '__delattr__' of exceptions.ImportError object>"
p39
sS'__subclasshook__'
p40
S'<built-in method __subclasshook__ of type object>'
p41
sS'__repr__'
p42
S"<method-wrapper '__repr__' of exceptions.ImportError object>"
p43
sS'__dict__'
p44
S'{}'
p45
sS'__sizeof__'
p46
S'<built-in method __sizeof__ of exceptions.ImportError object>'
p47
sS'__doc__'
p48
S'"Import can\'t find module, or can\'t find name in module."'
p49
sS'__init__'
p50
S"<method-wrapper '__init__' of exceptions.ImportError object>"
p51
sS'__new__'
p52
S'<built-in method __new__ of type object>'
p53
ssS'evalue'
p54
S"Cannot import module 'wolframalpha'"
p55
sS'request'
p56
cgluon.html
XML_unpickle
p57
(S's\x98c\x00\x00<div><table><tr><td style="font-weight:bold;vertical-align:top;">ajax</td><td style="vertical-align:top;">:</td><td><div>False</div></td></tr><tr><td style="font-weight:bold;vertical-align:top;">application</td><td style="vertical-align:top;">:</td><td><div>freebot</div></td></tr><tr><td style="font-weight:bold;vertical-align:top;">args</td><td style="vertical-align:top;">:</td><td><div><table></table></div></td></tr><tr><td style="font-weight:bold;vertical-align:top;">cid</td><td style="vertical-align:top;">:</td><td><div>None</div></td></tr><tr><td style="font-weight:bold;vertical-align:top;">client</td><td style="vertical-align:top;">:</td><td><div>208.98.149.218</div></td></tr><tr><td style="font-weight:bold;vertical-align:top;">controller</td><td style="vertical-align:top;">:</td><td><div>default</div></td></tr><tr><td style="font-weight:bold;vertical-align:top;">cookies</td><td style="vertical-align:top;">:</td><td><div><table><tr><td style="font-weight:bold;vertical-align:top;">session_id_freebot</td><td style="vertical-align:top;">:</td><td><div>208.98.149.218-427f20f3-1037-4256-81d1-12590df04aa1<table><tr><td style="font-weight:bold;vertical-align:top;">comment</td><td style="vertical-align:top;">:</td><td><div></div></td></tr><tr><td style="font-weight:bold;vertical-align:top;">domain</td><td style="vertical-align:top;">:</td><td><div></div></td></tr><tr><td style="font-weight:bold;vertical-align:top;">expires</td><td style="vertical-align:top;">:</td><td><div></div></td></tr><tr><td style="font-weight:bold;vertical-align:top;">httponly</td><td style="vertical-align:top;">:</td><td><div></div></td></tr><tr><td style="font-weight:bold;vertical-align:top;">max-age</td><td style="vertical-align:top;">:</td><td><div></div></td></tr><tr><td style="font-weight:bold;vertical-align:top;">path</td><td style="vertical-align:top;">:</td><td><div></div></td></tr><tr><td style="font-weight:bold;vertical-align:top;">secure</td><td style="vertical-align:top;">:</td><td><div></div></td></tr><tr><td style="font-weight:bold;vertical-align:top;">version</td><td style="vertical-align:top;">:</td><td><div></div></td></tr></table></div></td></tr></table></div></td></tr><tr><td style="font-weight:bold;vertical-align:top;">env</td><td style="vertical-align:top;">:</td><td><div><table><tr><td style="font-weight:bold;vertical-align:top;">CONTENT_LENGTH</td><td style="vertical-align:top;">:</td><td><div>531</div></td></tr><tr><td style="font-weight:bold;vertical-align:top;">CONTENT_TYPE</td><td style="vertical-align:top;">:</td><td><div>multipart/form-data; boundary=----WebKitFormBoundaryCBSJ82l0QXnjAi1R</div></td></tr><tr><td style="font-weight:bold;vertical-align:top;">CONTEXT_DOCUMENT_ROOT</td><td style="vertical-align:top;">:</td><td><div>/var/www</div></td></tr><tr><td style="font-weight:bold;vertical-align:top;">CONTEXT_PREFIX</td><td style="vertical-align:top;">:</td><td><div></div></td></tr><tr><td style="font-weight:bold;vertical-align:top;">DOCUMENT_ROOT</td><td style="vertical-align:top;">:</td><td><div>/var/www</div></td></tr><tr><td style="font-weight:bold;vertical-align:top;">GATEWAY_INTERFACE</td><td style="vertical-align:top;">:</td><td><div>CGI/1.1</div></td></tr><tr><td style="font-weight:bold;vertical-align:top;">HTTP_ACCEPT</td><td style="vertical-align:top;">:</td><td><div>text/html,application/xhtml+xml,application/xml;q=0.9,image/webp,*/*;q=0.8</div></td></tr><tr><td style="font-weight:bold;vertical-align:top;">HTTP_ACCEPT_ENCODING</td><td style="vertical-align:top;">:</td><td><div>gzip, deflate</div></td></tr><tr><td style="font-weight:bold;vertical-align:top;">HTTP_ACCEPT_LANGUAGE</td><td style="vertical-align:top;">:</td><td><div>en-US,en;q=0.8</div></td></tr><tr><td style="font-weight:bold;vertical-align:top;">HTTP_CACHE_CONTROL</td><td style="vertical-align:top;">:</td><td><div>max-age=0</div></td></tr><tr><td style="font-weight:bold;vertical-align:top;">HTTP_CONNECTION</td><td style="vertical-align:top;">:</td><td><div>keep-alive</div></td></tr><tr><td style="font-weight:bold;vertical-align:top;">HTTP_COOKIE</td><td style="vertical-align:top;">:</td><td><div>session_id_freebot=208.98.149.218-427f20f3-1037-4256-81d1-12590df04aa1</div></td></tr><tr><td style="font-weight:bold;vertical-align:top;">HTTP_HOST</td><td style="vertical-align:top;">:</td><td><div>www.kopachr.is</div></td></tr><tr><td style="font-weight:bold;vertical-align:top;">HTTP_ORIGIN</td><td style="vertical-align:top;">:</td><td><div>http://www.kopachr.is</div></td></tr><tr><td style="font-weight:bold;vertical-align:top;">HTTP_REFERER</td><td style="vertical-align:top;">:</td><td><div>http://www.kopachr.is/freebot/default/module_upload</div></td></tr><tr><td style="font-weight:bold;vertical-align:top;">HTTP_USER_AGENT</td><td style="vertical-align:top;">:</td><td><div>Mozilla/5.0 (Windows NT 5.1) AppleWebKit/537.36 (KHTML, like Gecko) Chrome/41.0.2272.101 Safari/537.36</div></td></tr><tr><td style="font-weight:bold;vertical-align:top;">PATH_INFO</td><td style="vertical-align:top;">:</td><td><div>/freebot/default/module_upload</div></td></tr><tr><td style="font-weight:bold;vertical-align:top;">PATH_TRANSLATED</td><td style="vertical-align:top;">:</td><td><div>/home/www-data/web2py/wsgihandler.py/freebot/default/module_upload</div></td></tr><tr><td style="font-weight:bold;vertical-align:top;">QUERY_STRING</td><td style="vertical-align:top;">:</td><td><div></div></td></tr><tr><td style="font-weight:bold;vertical-align:top;">REMOTE_ADDR</td><td style="vertical-align:top;">:</td><td><div>208.98.149.218</div></td></tr><tr><td style="font-weight:bold;vertical-align:top;">REMOTE_PORT</td><td style="vertical-align:top;">:</td><td><div>18301</div></td></tr><tr><td style="font-weight:bold;vertical-align:top;">REQUEST_METHOD</td><td style="vertical-align:top;">:</td><td><div>POST</div></td></tr><tr><td style="font-weight:bold;vertical-align:top;">REQUEST_SCHEME</td><td style="vertical-align:top;">:</td><td><div>http</div></td></tr><tr><td style="font-weight:bold;vertical-align:top;">REQUEST_URI</td><td style="vertical-align:top;">:</td><td><div>/freebot/default/module_upload</div></td></tr><tr><td style="font-weight:bold;vertical-align:top;">SCRIPT_FILENAME</td><td style="vertical-align:top;">:</td><td><div>/home/www-data/web2py/wsgihandler.py</div></td></tr><tr><td style="font-weight:bold;vertical-align:top;">SCRIPT_NAME</td><td style="vertical-align:top;">:</td><td><div></div></td></tr><tr><td style="font-weight:bold;vertical-align:top;">SERVER_ADDR</td><td style="vertical-align:top;">:</td><td><div>142.4.209.11</div></td></tr><tr><td style="font-weight:bold;vertical-align:top;">SERVER_ADMIN</td><td style="vertical-align:top;">:</td><td><div>[no address given]</div></td></tr><tr><td style="font-weight:bold;vertical-align:top;">SERVER_NAME</td><td style="vertical-align:top;">:</td><td><div>www.kopachr.is</div></td></tr><tr><td style="font-weight:bold;vertical-align:top;">SERVER_PORT</td><td style="vertical-align:top;">:</td><td><div>80</div></td></tr><tr><td style="font-weight:bold;vertical-align:top;">SERVER_PROTOCOL</td><td style="vertical-align:top;">:</td><td><div>HTTP/1.1</div></td></tr><tr><td style="font-weight:bold;vertical-align:top;">SERVER_SIGNATURE</td><td style="vertical-align:top;">:</td><td><div>&lt;address&gt;Apache/2.4.7 (Ubuntu) Server at www.kopachr.is Port 80&lt;/address&gt;\n</div></td></tr><tr><td style="font-weight:bold;vertical-align:top;">SERVER_SOFTWARE</td><td style="vertical-align:top;">:</td><td><div>Apache/2.4.7 (Ubuntu)</div></td></tr><tr><td style="font-weight:bold;vertical-align:top;">app_folders</td><td style="vertical-align:top;">:</td><td><div>set([&#x27;/home/www-data/web2py/applications/freebot/&#x27;, &#x27;/home/www-data/web2py/applications/welcome/&#x27;])</div></td></tr><tr><td style="font-weight:bold;vertical-align:top;">applications_parent</td><td style="vertical-align:top;">:</td><td><div>/home/www-data/web2py</div></td></tr><tr><td style="font-weight:bold;vertical-align:top;">content_length</td><td style="vertical-align:top;">:</td><td><div>531</div></td></tr><tr><td style="font-weight:bold;vertical-align:top;">content_type</td><td style="vertical-align:top;">:</td><td><div>multipart/form-data; boundary=----WebKitFormBoundaryCBSJ82l0QXnjAi1R</div></td></tr><tr><td style="font-weight:bold;vertical-align:top;">context_document_root</td><td style="vertical-align:top;">:</td><td><div>/var/www</div></td></tr><tr><td style="font-weight:bold;vertical-align:top;">context_prefix</td><td style="vertical-align:top;">:</td><td><div></div></td></tr><tr><td style="font-weight:bold;vertical-align:top;">db_sessions</td><td style="vertical-align:top;">:</td><td><div>set([])</div></td></tr><tr><td style="font-weight:bold;vertical-align:top;">debugging</td><td style="vertical-align:top;">:</td><td><div>False</div></td></tr><tr><td style="font-weight:bold;vertical-align:top;">document_root</td><td style="vertical-align:top;">:</td><td><div>/var/www</div></td></tr><tr><td style="font-weight:bold;vertical-align:top;">gateway_interface</td><td style="vertical-align:top;">:</td><td><div>CGI/1.1</div></td></tr><tr><td style="font-weight:bold;vertical-align:top;">gluon_parent</td><td style="vertical-align:top;">:</td><td><div>/home/www-data/web2py</div></td></tr><tr><td style="font-weight:bold;vertical-align:top;">http_accept</td><td style="vertical-align:top;">:</td><td><div>text/html,application/xhtml+xml,application/xml;q=0.9,image/webp,*/*;q=0.8</div></td></tr><tr><td style="font-weight:bold;vertical-align:top;">http_accept_encoding</td><td style="vertical-align:top;">:</td><td><div>gzip, deflate</div></td></tr><tr><td style="font-weight:bold;vertical-align:top;">http_accept_language</td><td style="vertical-align:top;">:</td><td><div>en-US,en;q=0.8</div></td></tr><tr><td style="font-weight:bold;vertical-align:top;">http_cache_control</td><td style="vertical-align:top;">:</td><td><div>max-age=0</div></td></tr><tr><td style="font-weight:bold;vertical-align:top;">http_connection</td><td style="vertical-align:top;">:</td><td><div>keep-alive</div></td></tr><tr><td style="font-weight:bold;vertical-align:top;">http_cookie</td><td style="vertical-align:top;">:</td><td><div>session_id_freebot=208.98.149.218-427f20f3-1037-4256-81d1-12590df04aa1</div></td></tr><tr><td style="font-weight:bold;vertical-align:top;">http_host</td><td style="vertical-align:top;">:</td><td><div>www.kopachr.is</div></td></tr><tr><td style="font-weight:bold;vertical-align:top;">http_origin</td><td style="vertical-align:top;">:</td><td><div>http://www.kopachr.is</div></td></tr><tr><td style="font-weight:bold;vertical-align:top;">http_referer</td><td style="vertical-align:top;">:</td><td><div>http://www.kopachr.is/freebot/default/module_upload</div></td></tr><tr><td style="font-weight:bold;vertical-align:top;">http_user_agent</td><td style="vertical-align:top;">:</td><td><div>Mozilla/5.0 (Windows NT 5.1) AppleWebKit/537.36 (KHTML, like Gecko) Chrome/41.0.2272.101 Safari/537.36</div></td></tr><tr><td style="font-weight:bold;vertical-align:top;">is_jython</td><td style="vertical-align:top;">:</td><td><div>False</div></td></tr><tr><td style="font-weight:bold;vertical-align:top;">is_pypy</td><td style="vertical-align:top;">:</td><td><div>False</div></td></tr><tr><td style="font-weight:bold;vertical-align:top;">is_source</td><td style="vertical-align:top;">:</td><td><div>True</div></td></tr><tr><td style="font-weight:bold;vertical-align:top;">local_hosts</td><td style="vertical-align:top;">:</td><td><div><table><tr><td><div>www.kopachr.is</div></td></tr><tr><td><div>::ffff:127.0.0.1</div></td></tr><tr><td><div>2607:5300:60:e0b::1</div></td></tr><tr><td><div>ns504287.ip-142-4-209.net</div></td></tr><tr><td><div>::1</div></td></tr><tr><td><div>142.4.209.11</div></td></tr><tr><td><div>127.0.0.1</div></td></tr></table></div></td></tr><tr><td style="font-weight:bold;vertical-align:top;">mod_wsgi.application_group</td><td style="vertical-align:top;">:</td><td><div>www.kopachr.is|</div></td></tr><tr><td style="font-weight:bold;vertical-align:top;">mod_wsgi.callable_object</td><td style="vertical-align:top;">:</td><td><div>application</div></td></tr><tr><td style="font-weight:bold;vertical-align:top;">mod_wsgi.enable_sendfile</td><td style="vertical-align:top;">:</td><td><div>0</div></td></tr><tr><td style="font-weight:bold;vertical-align:top;">mod_wsgi.handler_script</td><td style="vertical-align:top;">:</td><td><div></div></td></tr><tr><td style="font-weight:bold;vertical-align:top;">mod_wsgi.input_chunked</td><td style="vertical-align:top;">:</td><td><div>0</div></td></tr><tr><td style="font-weight:bold;vertical-align:top;">mod_wsgi.listener_host</td><td style="vertical-align:top;">:</td><td><div></div></td></tr><tr><td style="font-weight:bold;vertical-align:top;">mod_wsgi.listener_port</td><td style="vertical-align:top;">:</td><td><div>80</div></td></tr><tr><td style="font-weight:bold;vertical-align:top;">mod_wsgi.process_group</td><td style="vertical-align:top;">:</td><td><div>web2py1</div></td></tr><tr><td style="font-weight:bold;vertical-align:top;">mod_wsgi.queue_start</td><td style="vertical-align:top;">:</td><td><div>1427703388588468</div></td></tr><tr><td style="font-weight:bold;vertical-align:top;">mod_wsgi.request_handler</td><td style="vertical-align:top;">:</td><td><div>wsgi-script</div></td></tr><tr><td style="font-weight:bold;vertical-align:top;">mod_wsgi.script_reloading</td><td style="vertical-align:top;">:</td><td><div>1</div></td></tr><tr><td style="font-weight:bold;vertical-align:top;">mod_wsgi.version</td><td style="vertical-align:top;">:</td><td><div><table><tr><td><div>3</div></td></tr><tr><td><div>4</div></td></tr></table></div></td></tr><tr><td style="font-weight:bold;vertical-align:top;">mod_wsgi_application_group</td><td style="vertical-align:top;">:</td><td><div>www.kopachr.is|</div></td></tr><tr><td style="font-weight:bold;vertical-align:top;">mod_wsgi_callable_object</td><td style="vertical-align:top;">:</td><td><div>application</div></td></tr><tr><td style="font-weight:bold;vertical-align:top;">mod_wsgi_enable_sendfile</td><td style="vertical-align:top;">:</td><td><div>0</div></td></tr><tr><td style="font-weight:bold;vertical-align:top;">mod_wsgi_handler_script</td><td style="vertical-align:top;">:</td><td><div></div></td></tr><tr><td style="font-weight:bold;vertical-align:top;">mod_wsgi_input_chunked</td><td style="vertical-align:top;">:</td><td><div>0</div></td></tr><tr><td style="font-weight:bold;vertical-align:top;">mod_wsgi_listener_host</td><td style="vertical-align:top;">:</td><td><div></div></td></tr><tr><td style="font-weight:bold;vertical-align:top;">mod_wsgi_listener_port</td><td style="vertical-align:top;">:</td><td><div>80</div></td></tr><tr><td style="font-weight:bold;vertical-align:top;">mod_wsgi_process_group</td><td style="vertical-align:top;">:</td><td><div>web2py1</div></td></tr><tr><td style="font-weight:bold;vertical-align:top;">mod_wsgi_queue_start</td><td style="vertical-align:top;">:</td><td><div>1427703388588468</div></td></tr><tr><td style="font-weight:bold;vertical-align:top;">mod_wsgi_request_handler</td><td style="vertical-align:top;">:</td><td><div>wsgi-script</div></td></tr><tr><td style="font-weight:bold;vertical-align:top;">mod_wsgi_script_reloading</td><td style="vertical-align:top;">:</td><td><div>1</div></td></tr><tr><td style="font-weight:bold;vertical-align:top;">mod_wsgi_version</td><td style="vertical-align:top;">:</td><td><div><table><tr><td><div>3</div></td></tr><tr><td><div>4</div></td></tr></table></div></td></tr><tr><td style="font-weight:bold;vertical-align:top;">path_info</td><td style="vertical-align:top;">:</td><td><div>/freebot/default/module_upload</div></td></tr><tr><td style="font-weight:bold;vertical-align:top;">path_translated</td><td style="vertical-align:top;">:</td><td><div>/home/www-data/web2py/wsgihandler.py/freebot/default/module_upload</div></td></tr><tr><td style="font-weight:bold;vertical-align:top;">query_string</td><td style="vertical-align:top;">:</td><td><div></div></td></tr><tr><td style="font-weight:bold;vertical-align:top;">remote_addr</td><td style="vertical-align:top;">:</td><td><div>208.98.149.218</div></td></tr><tr><td style="font-weight:bold;vertical-align:top;">remote_port</td><td style="vertical-align:top;">:</td><td><div>18301</div></td></tr><tr><td style="font-weight:bold;vertical-align:top;">request_method</td><td style="vertical-align:top;">:</td><td><div>POST</div></td></tr><tr><td style="font-weight:bold;vertical-align:top;">request_scheme</td><td style="vertical-align:top;">:</td><td><div>http</div></td></tr><tr><td style="font-weight:bold;vertical-align:top;">request_uri</td><td style="vertical-align:top;">:</td><td><div>/freebot/default/module_upload</div></td></tr><tr><td style="font-weight:bold;vertical-align:top;">script_filename</td><td style="vertical-align:top;">:</td><td><div>/home/www-data/web2py/wsgihandler.py</div></td></tr><tr><td style="font-weight:bold;vertical-align:top;">script_name</td><td style="vertical-align:top;">:</td><td><div></div></td></tr><tr><td style="font-weight:bold;vertical-align:top;">server_addr</td><td style="vertical-align:top;">:</td><td><div>142.4.209.11</div></td></tr><tr><td style="font-weight:bold;vertical-align:top;">server_admin</td><td style="vertical-align:top;">:</td><td><div>[no address given]</div></td></tr><tr><td style="font-weight:bold;vertical-align:top;">server_name</td><td style="vertical-align:top;">:</td><td><div>www.kopachr.is</div></td></tr><tr><td style="font-weight:bold;vertical-align:top;">server_port</td><td style="vertical-align:top;">:</td><td><div>80</div></td></tr><tr><td style="font-weight:bold;vertical-align:top;">server_protocol</td><td style="vertical-align:top;">:</td><td><div>HTTP/1.1</div></td></tr><tr><td style="font-weight:bold;vertical-align:top;">server_signature</td><td style="vertical-align:top;">:</td><td><div>&lt;address&gt;Apache/2.4.7 (Ubuntu) Server at www.kopachr.is Port 80&lt;/address&gt;\n</div></td></tr><tr><td style="font-weight:bold;vertical-align:top;">server_software</td><td style="vertical-align:top;">:</td><td><div>Apache/2.4.7 (Ubuntu)</div></td></tr><tr><td style="font-weight:bold;vertical-align:top;">web2py_original_uri</td><td style="vertical-align:top;">:</td><td><div>/freebot/default/module_upload</div></td></tr><tr><td style="font-weight:bold;vertical-align:top;">web2py_path</td><td style="vertical-align:top;">:</td><td><div>/home/www-data/web2py</div></td></tr><tr><td style="font-weight:bold;vertical-align:top;">web2py_version</td><td style="vertical-align:top;">:</td><td><div>2.9.5-stable+timestamp.2014.03.16.02.35.39</div></td></tr><tr><td style="font-weight:bold;vertical-align:top;">wsgi.errors</td><td style="vertical-align:top;">:</td><td><div>&lt;mod_wsgi.Log object at 0x7f69194a1eb0&gt;</div></td></tr><tr><td style="font-weight:bold;vertical-align:top;">wsgi.file_wrapper</td><td style="vertical-align:top;">:</td><td><div>&lt;built-in method file_wrapper of mod_wsgi.Adapter object at 0x7f69194a77b0&gt;</div></td></tr><tr><td style="font-weight:bold;vertical-align:top;">wsgi.input</td><td style="vertical-align:top;">:</td><td><div>&lt;mod_wsgi.Input object at 0x7f69194a1df0&gt;</div></td></tr><tr><td style="font-weight:bold;vertical-align:top;">wsgi.multiprocess</td><td style="vertical-align:top;">:</td><td><div>True</div></td></tr><tr><td style="font-weight:bold;vertical-align:top;">wsgi.multithread</td><td style="vertical-align:top;">:</td><td><div>False</div></td></tr><tr><td style="font-weight:bold;vertical-align:top;">wsgi.run_once</td><td style="vertical-align:top;">:</td><td><div>False</div></td></tr><tr><td style="font-weight:bold;vertical-align:top;">wsgi.url_scheme</td><td style="vertical-align:top;">:</td><td><div>http</div></td></tr><tr><td style="font-weight:bold;vertical-align:top;">wsgi.version</td><td style="vertical-align:top;">:</td><td><div><table><tr><td><div>1</div></td></tr><tr><td><div>0</div></td></tr></table></div></td></tr><tr><td style="font-weight:bold;vertical-align:top;">wsgi_errors</td><td style="vertical-align:top;">:</td><td><div>&lt;mod_wsgi.Log object at 0x7f69194a1eb0&gt;</div></td></tr><tr><td style="font-weight:bold;vertical-align:top;">wsgi_file_wrapper</td><td style="vertical-align:top;">:</td><td><div>&lt;built-in method file_wrapper of mod_wsgi.Adapter object at 0x7f69194a77b0&gt;</div></td></tr><tr><td style="font-weight:bold;vertical-align:top;">wsgi_input</td><td style="vertical-align:top;">:</td><td><div>&lt;mod_wsgi.Input object at 0x7f69194a1df0&gt;</div></td></tr><tr><td style="font-weight:bold;vertical-align:top;">wsgi_multiprocess</td><td style="vertical-align:top;">:</td><td><div>True</div></td></tr><tr><td style="font-weight:bold;vertical-align:top;">wsgi_multithread</td><td style="vertical-align:top;">:</td><td><div>False</div></td></tr><tr><td style="font-weight:bold;vertical-align:top;">wsgi_run_once</td><td style="vertical-align:top;">:</td><td><div>False</div></td></tr><tr><td style="font-weight:bold;vertical-align:top;">wsgi_url_scheme</td><td style="vertical-align:top;">:</td><td><div>http</div></td></tr><tr><td style="font-weight:bold;vertical-align:top;">wsgi_version</td><td style="vertical-align:top;">:</td><td><div><table><tr><td><div>1</div></td></tr><tr><td><div>0</div></td></tr></table></div></td></tr></table></div></td></tr><tr><td style="font-weight:bold;vertical-align:top;">extension</td><td style="vertical-align:top;">:</td><td><div>html</div></td></tr><tr><td style="font-weight:bold;vertical-align:top;">folder</td><td style="vertical-align:top;">:</td><td><div>/home/www-data/web2py/applications/freebot/</div></td></tr><tr><td style="font-weight:bold;vertical-align:top;">function</td><td style="vertical-align:top;">:</td><td><div>module_upload</div></td></tr><tr><td style="font-weight:bold;vertical-align:top;">global_settings</td><td style="vertical-align:top;">:</td><td><div><table><tr><td style="font-weight:bold;vertical-align:top;">app_folders</td><td style="vertical-align:top;">:</td><td><div>set([&#x27;/home/www-data/web2py/applications/freebot/&#x27;, &#x27;/home/www-data/web2py/applications/welcome/&#x27;])</div></td></tr><tr><td style="font-weight:bold;vertical-align:top;">applications_parent</td><td style="vertical-align:top;">:</td><td><div>/home/www-data/web2py</div></td></tr><tr><td style="font-weight:bold;vertical-align:top;">db_sessions</td><td style="vertical-align:top;">:</td><td><div>set([])</div></td></tr><tr><td style="font-weight:bold;vertical-align:top;">debugging</td><td style="vertical-align:top;">:</td><td><div>False</div></td></tr><tr><td style="font-weight:bold;vertical-align:top;">gluon_parent</td><td style="vertical-align:top;">:</td><td><div>/home/www-data/web2py</div></td></tr><tr><td style="font-weight:bold;vertical-align:top;">is_jython</td><td style="vertical-align:top;">:</td><td><div>False</div></td></tr><tr><td style="font-weight:bold;vertical-align:top;">is_pypy</td><td style="vertical-align:top;">:</td><td><div>False</div></td></tr><tr><td style="font-weight:bold;vertical-align:top;">is_source</td><td style="vertical-align:top;">:</td><td><div>True</div></td></tr><tr><td style="font-weight:bold;vertical-align:top;">local_hosts</td><td style="vertical-align:top;">:</td><td><div><table><tr><td><div>www.kopachr.is</div></td></tr><tr><td><div>::ffff:127.0.0.1</div></td></tr><tr><td><div>2607:5300:60:e0b::1</div></td></tr><tr><td><div>ns504287.ip-142-4-209.net</div></td></tr><tr><td><div>::1</div></td></tr><tr><td><div>142.4.209.11</div></td></tr><tr><td><div>127.0.0.1</div></td></tr></table></div></td></tr><tr><td style="font-weight:bold;vertical-align:top;">web2py_version</td><td style="vertical-align:top;">:</td><td><div>2.9.5-stable+timestamp.2014.03.16.02.35.39</div></td></tr></table></div></td></tr><tr><td style="font-weight:bold;vertical-align:top;">is_https</td><td style="vertical-align:top;">:</td><td><div>False</div></td></tr><tr><td style="font-weight:bold;vertical-align:top;">is_local</td><td style="vertical-align:top;">:</td><td><div>False</div></td></tr><tr><td style="font-weight:bold;vertical-align:top;">is_restful</td><td style="vertical-align:top;">:</td><td><div>False</div></td></tr><tr><td style="font-weight:bold;vertical-align:top;">now</td><td style="vertical-align:top;">:</td><td><div>datetime.datetime(2015, 3, 30, 8, 16, 28, 588881)</div></td></tr><tr><td style="font-weight:bold;vertical-align:top;">raw_args</td><td style="vertical-align:top;">:</td><td><div></div></td></tr><tr><td style="font-weight:bold;vertical-align:top;">raw_extension</td><td style="vertical-align:top;">:</td><td><div>None</div></td></tr><tr><td style="font-weight:bold;vertical-align:top;">url</td><td style="vertical-align:top;">:</td><td><div>/freebot/default/module_upload</div></td></tr><tr><td style="font-weight:bold;vertical-align:top;">utcnow</td><td style="vertical-align:top;">:</td><td><div>datetime.datetime(2015, 3, 30, 8, 16, 28, 588895)</div></td></tr><tr><td style="font-weight:bold;vertical-align:top;">uuid</td><td style="vertical-align:top;">:</td><td><div>freebot/208.98.149.218.2015-03-30.08-16-28.9415830a-5d88-4638-a584-c3e93de406ee</div></td></tr><tr><td style="font-weight:bold;vertical-align:top;">wsgi</td><td style="vertical-align:top;">:</td><td><div>&lt;gluon.main.LazyWSGI object at 0x7f691943c310&gt;</div></td></tr></table></div>'
tRp58
sS'frames'
p59
(lp60
(dp61
S'file'
p62
S'/home/www-data/web2py/gluon/restricted.py'
p63
sS'dump'
p64
(dp65
S'environment'
p66
S"{'A': <class 'gluon.html.A'>, 'ANY_OF': <class 'gluon.validators.ANY_OF'>, 'Auth': <class 'gluon.tools.Auth'>, 'B': <class 'gluon.html.B'>, 'BEAUTIFY': <class 'gluon.html.BEAUTIFY'>, 'BODY': <class 'gluon.html.BODY'>, 'BR': <class 'gluon.html.BR'>, 'BUTTON': <class 'gluon.html.BUTTON'>, 'CAT': <class 'gluon.html.CAT'>, 'CENTER': <class 'gluon.html.CENTER'>, ...}"
p67
sS'ccode'
p68
S'<code object <module> at 0x7f691969ee30, file "/...cations/freebot/controllers/default.py", line 11>'
p69
ssS'lnum'
p70
I220
sS'lines'
p71
(dp72
I224
S'        # do not encapsulate (obfuscate) the original RestrictedError'
p73
sI215
S'    try:'
p74
sI216
S'        if isinstance(code, types.CodeType):'
p75
sI217
S'            ccode = code'
p76
sI218
S'        else:'
p77
sI219
S'            ccode = compile2(code, layer)'
p78
sI220
S'        exec ccode in environment'
p79
sI221
S'    except HTTP:'
p80
sI222
S'        raise'
p81
sI223
S'    except RestrictedError:'
p82
ssS'call'
p83
S"(code='# -*- coding: utf-8 -*-\\n# this file is released ...\\n\\nresponse._vars=response._caller(module_upload)\\n', environment={'A': <class 'gluon.html.A'>, 'ANY_OF': <class 'gluon.validators.ANY_OF'>, 'Auth': <class 'gluon.tools.Auth'>, 'B': <class 'gluon.html.B'>, 'BEAUTIFY': <class 'gluon.html.BEAUTIFY'>, 'BODY': <class 'gluon.html.BODY'>, 'BR': <class 'gluon.html.BR'>, 'BUTTON': <class 'gluon.html.BUTTON'>, 'CAT': <class 'gluon.html.CAT'>, 'CENTER': <class 'gluon.html.CENTER'>, ...}, layer='/home/www-data/web2py/applications/freebot/controllers/default.py')"
p84
sS'func'
p85
S'restricted'
p86
sa(dp87
g62
S'/home/www-data/web2py/applications/freebot/controllers/default.py'
p88
sg64
(dp89
sg70
I449
sg71
(dp90
I438
S'    http://..../[app]/default/data/update/[table]/[id]'
p91
sI439
S'    http://..../[app]/default/data/delete/[table]/[id]'
p92
sI440
S'    http://..../[app]/default/data/select/[table]'
p93
sI441
S'    http://..../[app]/default/data/search/[table]'
p94
sI442
S'    but URLs must be signed, i.e. linked with'
p95
sI443
S"      A('table',_href=URL('data/tables',user_signature=True))"
p96
sI444
S'    or with the signed load operator'
p97
sI445
S"      LOAD('default','data.load',args='tables',ajax=True,user_signature=True)"
p98
sI446
S'    """'
p99
sI447
S'    return dict(form=crud())'
p100
ssg83
S'()'
p101
sg85
S'<module>'
p102
sa(dp103
g62
S'/home/www-data/web2py/gluon/globals.py'
p104
sg64
(dp105
S'self'
p106
S'undefined'
p107
sS'f'
S'<function module_upload>'
p108
ssg70
I385
sg71
(dp109
I384
S'        self._vars = None'
p110
sI385
S'        self._caller = lambda f: f()'
p111
sI386
S'        self._view_environment = None'
p112
sI387
S'        self._custom_commit = None'
p113
sI388
S'        self._custom_rollback = None'
p114
sI389
S''
sI380
S'        self.menu = []             # used by the default view layout'
p115
sI381
S'        self.files = []            # used by web2py_ajax.html'
p116
sI382
S'        self.generic_patterns = []  # patterns to allow generic views'
p117
sI383
S"        self.delimiters = ('{{', '}}')"
p118
ssg83
S'(f=<function module_upload>)'
p119
sg85
S'<lambda>'
p120
sa(dp121
g62
S'/home/www-data/web2py/gluon/tools.py'
p122
sg64
(dp123
S'action'
p124
S'<function module_upload>'
p125
sS'a'
S'()'
p126
sS'b'
g45
ssg70
I3287
sg71
(dp127
I3282
S'                    flag = condition'
p128
sI3283
S'                if not flag:'
p129
sI3284
S'                    current.session.flash = self.messages.access_denied'
p130
sI3285
S'                    return call_or_redirect('
p131
sI3286
S'                        self.settings.on_failed_authorization)'
p132
sI3287
S'                return action(*a, **b)'
p133
sI3288
S'            f.__doc__ = action.__doc__'
p134
sI3289
S'            f.__name__ = action.__name__'
p135
sI3290
S'            f.__dict__.update(action.__dict__)'
p136
sI3291
S'            return f'
p137
ssg83
S'(*a=(), **b={})'
p138
sg85
S'f'
sa(dp139
g62
S'/home/www-data/web2py/applications/freebot/controllers/default.py'
p140
sg64
(dp141
S'modname'
p142
S"'wolframalpha'"
p143
sS'new_mod'
p144
g107
sS'builtin__import__'
p145
S'<function custom_importer>'
p146
ssg70
I272
sg71
(dp147
I267
S'                response.flash = "Module already exists"'
p148
sI268
S'                return out'
p149
sI269
S'            f = request.vars.upload.file'
p150
sI270
S"            shutil.copyfileobj(f, open('applications/freebot/modules/'+filename, 'wb'))"
p151
sI271
S''
sI272
S'        new_mod = __import__(modname)'
p152
sI273
S"        etype = 'PRIVMSG'"
p153
sI274
S'        new_mod.init(db)'
p154
sI275
S'        db.bot_modules.insert(name=modname,'
p155
sI276
S'                              description=new_mod.description,'
p156
ssg83
S'()'
p157
sg85
S'module_upload'
p158
sa(dp159
g62
S'/home/www-data/web2py/gluon/custom_import.py'
p160
sg64
(dp161
S'builtinstr'
p162
S"<type 'str'>"
p163
sS'builtinImportError'
p164
S"<type 'exceptions.ImportError'>"
p165
sS'e'
S"KeyError('wolframalpha',)"
p166
ssg70
I86
sg71
(dp167
I81
S'                        new_mod = base_importer('
p168
sI82
S'                            modules_prefix, globals, locals, [itemname], level)'
p169
sI83
S'                        try:'
p170
sI84
S'                            result = result or new_mod.__dict__[itemname]'
p171
sI85
S'                        except KeyError, e:'
p172
sI86
S"                            raise ImportError, 'Cannot import module %s' % str(e)"
p173
sI87
S'                        modules_prefix += "." + itemname'
p174
sI88
S'                    return result'
p175
sI89
S'                else:'
p176
sI90
S'                    # import like "from x import a, b, ..."'
p177
ssg83
S"(name='wolframalpha', globals={}, locals={}, fromlist=[], level=-1)"
p178
sg85
S'custom_importer'
p179
sasS'pyver'
p180
S'Python 2.7.6: /usr/bin/python (prefix: /usr)'
p181
sS'session'
p182
g57
(S'sc\t\x00\x00<div><table><tr><td style="font-weight:bold;vertical-align:top;">auth</td><td style="vertical-align:top;">:</td><td><div><table><tr><td style="font-weight:bold;vertical-align:top;">expiration</td><td style="vertical-align:top;">:</td><td><div>3600</div></td></tr><tr><td style="font-weight:bold;vertical-align:top;">hmac_key</td><td style="vertical-align:top;">:</td><td><div>ba18e126-cc6a-4ea4-98b3-7aa46720ba40</div></td></tr><tr><td style="font-weight:bold;vertical-align:top;">last_visit</td><td style="vertical-align:top;">:</td><td><div>datetime.datetime(2015, 3, 30, 8, 13, 43, 115866)</div></td></tr><tr><td style="font-weight:bold;vertical-align:top;">remember</td><td style="vertical-align:top;">:</td><td><div>False</div></td></tr><tr><td style="font-weight:bold;vertical-align:top;">user</td><td style="vertical-align:top;">:</td><td><div><table><tr><td style="font-weight:bold;vertical-align:top;">email</td><td style="vertical-align:top;">:</td><td><div>kopachris@gmail.com</div></td></tr><tr><td style="font-weight:bold;vertical-align:top;">first_name</td><td style="vertical-align:top;">:</td><td><div>Chris</div></td></tr><tr><td style="font-weight:bold;vertical-align:top;">id</td><td style="vertical-align:top;">:</td><td><div>1L</div></td></tr><tr><td style="font-weight:bold;vertical-align:top;">last_name</td><td style="vertical-align:top;">:</td><td><div>Koch</div></td></tr><tr><td style="font-weight:bold;vertical-align:top;">registration_id</td><td style="vertical-align:top;">:</td><td><div></div></td></tr><tr><td style="font-weight:bold;vertical-align:top;">registration_key</td><td style="vertical-align:top;">:</td><td><div></div></td></tr><tr><td style="font-weight:bold;vertical-align:top;">reset_password_key</td><td style="vertical-align:top;">:</td><td><div></div></td></tr></table></div></td></tr><tr><td style="font-weight:bold;vertical-align:top;">user_groups</td><td style="vertical-align:top;">:</td><td><div><table><tr><td style="font-weight:bold;vertical-align:top;">1</td><td style="vertical-align:top;">:</td><td><div>admin</div></td></tr><tr><td style="font-weight:bold;vertical-align:top;">2</td><td style="vertical-align:top;">:</td><td><div>wheel</div></td></tr></table></div></td></tr></table></div></td></tr><tr><td style="font-weight:bold;vertical-align:top;">flash</td><td style="vertical-align:top;">:</td><td><div>None</div></td></tr></table></div>'
tRp183
sS'etype'
p184
S"<type 'exceptions.ImportError'>"
p185
sS'date'
p186
S'Mon Mar 30 08:16:28 2015'
p187
sS'response'
p188
g57
(S's\xad9\x00\x00<div><table><tr><td style="font-weight:bold;vertical-align:top;">body</td><td style="vertical-align:top;">:</td><td><div>&lt;cStringIO.StringO object at 0x7f691941bf48&gt;</div></td></tr><tr><td style="font-weight:bold;vertical-align:top;">cookies</td><td style="vertical-align:top;">:</td><td><div><table><tr><td style="font-weight:bold;vertical-align:top;">session_id_freebot</td><td style="vertical-align:top;">:</td><td><div>208.98.149.218-427f20f3-1037-4256-81d1-12590df04aa1<table><tr><td style="font-weight:bold;vertical-align:top;">comment</td><td style="vertical-align:top;">:</td><td><div></div></td></tr><tr><td style="font-weight:bold;vertical-align:top;">domain</td><td style="vertical-align:top;">:</td><td><div></div></td></tr><tr><td style="font-weight:bold;vertical-align:top;">expires</td><td style="vertical-align:top;">:</td><td><div></div></td></tr><tr><td style="font-weight:bold;vertical-align:top;">httponly</td><td style="vertical-align:top;">:</td><td><div></div></td></tr><tr><td style="font-weight:bold;vertical-align:top;">max-age</td><td style="vertical-align:top;">:</td><td><div></div></td></tr><tr><td style="font-weight:bold;vertical-align:top;">path</td><td style="vertical-align:top;">:</td><td><div>/</div></td></tr><tr><td style="font-weight:bold;vertical-align:top;">secure</td><td style="vertical-align:top;">:</td><td><div></div></td></tr><tr><td style="font-weight:bold;vertical-align:top;">version</td><td style="vertical-align:top;">:</td><td><div></div></td></tr></table></div></td></tr></table></div></td></tr><tr><td style="font-weight:bold;vertical-align:top;">delimiters</td><td style="vertical-align:top;">:</td><td><div><table><tr><td><div>{{</div></td></tr><tr><td><div>}}</div></td></tr></table></div></td></tr><tr><td style="font-weight:bold;vertical-align:top;">files</td><td style="vertical-align:top;">:</td><td><div><table></table></div></td></tr><tr><td style="font-weight:bold;vertical-align:top;">flash</td><td style="vertical-align:top;">:</td><td><div>Success!</div></td></tr><tr><td style="font-weight:bold;vertical-align:top;">generic_patterns</td><td style="vertical-align:top;">:</td><td><div><table><tr><td><div>*</div></td></tr></table></div></td></tr><tr><td style="font-weight:bold;vertical-align:top;">google_analytics_id</td><td style="vertical-align:top;">:</td><td><div>None</div></td></tr><tr><td style="font-weight:bold;vertical-align:top;">headers</td><td style="vertical-align:top;">:</td><td><div><table><tr><td style="font-weight:bold;vertical-align:top;">X-Powered-By</td><td style="vertical-align:top;">:</td><td><div>web2py</div></td></tr></table></div></td></tr><tr><td style="font-weight:bold;vertical-align:top;">logo</td><td style="vertical-align:top;">:</td><td><div><a class="brand" href="http://www.kopachr.is/freebot/"><b>Cicero</b>&nbsp;</a></div></td></tr><tr><td style="font-weight:bold;vertical-align:top;">menu</td><td style="vertical-align:top;">:</td><td><div><table><tr><td><div><table><tr><td><div>Home</div></td></tr><tr><td><div>False</div></td></tr><tr><td><div>/freebot/default/index</div></td></tr><tr><td><div><table></table></div></td></tr></table></div></td></tr><tr><td><div><table><tr><td><div>GitHub</div></td></tr><tr><td><div>False</div></td></tr><tr><td><div>http://github.com/kopachris/botenalfred</div></td></tr><tr><td><div><table></table></div></td></tr></table></div></td></tr><tr><td><div><table><tr><td><div>qdb</div></td></tr><tr><td><div>False</div></td></tr><tr><td><div>http://www.kopachr.is</div></td></tr><tr><td><div><table></table></div></td></tr></table></div></td></tr><tr><td><div><table><tr><td><div>Stats</div></td></tr><tr><td><div>False</div></td></tr><tr><td><div>/freebot/stats/index</div></td></tr><tr><td><div><table></table></div></td></tr></table></div></td></tr><tr><td><div><table><tr><td><div>Admin</div></td></tr><tr><td><div>False</div></td></tr><tr><td><div>/freebot/default/bot_admin</div></td></tr><tr><td><div><table><tr><td><div><table><tr><td><div>Admin panel</div></td></tr><tr><td><div>False</div></td></tr><tr><td><div>/freebot/default/bot_admin</div></td></tr><tr><td><div>[]</div></td></tr></table></div></td></tr><tr><td><div><table><tr><td><div>Module list</div></td></tr><tr><td><div>False</div></td></tr><tr><td><div>/freebot/default/module_list</div></td></tr><tr><td><div>[]</div></td></tr></table></div></td></tr><tr><td><div><table><tr><td><div>Upload module</div></td></tr><tr><td><div>False</div></td></tr><tr><td><div>/freebot/default/module_upload</div></td></tr><tr><td><div>[]</div></td></tr></table></div></td></tr><tr><td><div><table><tr><td><div>View logs</div></td></tr><tr><td><div>False</div></td></tr><tr><td><div>/freebot/default/log</div></td></tr><tr><td><div>[]</div></td></tr></table></div></td></tr><tr><td><div><table><tr><td><div>Search logs</div></td></tr><tr><td><div>False</div></td></tr><tr><td><div>/freebot/default/search</div></td></tr><tr><td><div>[]</div></td></tr></table></div></td></tr></table></div></td></tr></table></div></td></tr><tr><td><div><table><tr><td><div><span class="highlighted">web2py</span></div></td></tr><tr><td><div>False</div></td></tr><tr><td><div>http://web2py.com</div></td></tr><tr><td><div><table><tr><td><div><table><tr><td><div>My Sites</div></td></tr><tr><td><div>False</div></td></tr><tr><td><div>/admin/default/site</div></td></tr></table></div></td></tr><tr><td><div><table><tr><td><div>This App</div></td></tr><tr><td><div>False</div></td></tr><tr><td><div>/admin/default/design/freebot</div></td></tr><tr><td><div>[(&lt;lazyT &#x27;Controller&#x27;&gt;, False, &#x27;/admin/default/edit/freebot/controllers/default.py&#x27;), (&lt;lazyT &#x27;View&#x27;&gt;, False, &#x27;/admin/default/edit/freebot/views/default/module_upload.html&#x27;), (&lt;lazyT &#x27;Layout&#x27;&gt;, False, &#x27;/admin/default/edit/freebot/views/layout.html&#x27;), (&lt;lazyT &#x27;Stylesheet&#x27;&gt;, False, &#x27;/admin/default/edit/freebot/static/css/web2py.css&#x27;), (&lt;lazyT &#x27;DB Model&#x27;&gt;, False, &#x27;/admin/default/edit/freebot/models/db.py&#x27;), (&lt;lazyT &#x27;Menu Model&#x27;&gt;, False, &#x27;/admin/default/edit/freebot/models/menu.py&#x27;), (&lt;lazyT &#x27;Database&#x27;&gt;, False, &#x27;/freebot/appadmin/index&#x27;), (&lt;lazyT &#x27;Errors&#x27;&gt;, False, &#x27;/admin/default/errors/freebot&#x27;), (&lt;lazyT &#x27;About&#x27;&gt;, False, &#x27;/admin/default/about/freebot&#x27;)]</div></td></tr></table></div></td></tr><tr><td><div><table><tr><td><div>web2py.com</div></td></tr><tr><td><div>False</div></td></tr><tr><td><div>http://www.web2py.com</div></td></tr><tr><td><div>[(&lt;lazyT &#x27;Download&#x27;&gt;, False, &#x27;http://www.web2py.com/examples/default/download&#x27;), (&lt;lazyT &#x27;Support&#x27;&gt;, False, &#x27;http://www.web2py.com/examples/default/support&#x27;), (&lt;lazyT &#x27;Demo&#x27;&gt;, False, &#x27;http://web2py.com/demo_admin&#x27;), (&lt;lazyT &#x27;Quick Examples&#x27;&gt;, False, &#x27;http://web2py.com/examples/default/examples&#x27;), (&lt;lazyT &#x27;FAQ&#x27;&gt;, False, &#x27;http://web2py.com/AlterEgo&#x27;), (&lt;lazyT &#x27;Videos&#x27;&gt;, False, &#x27;http://www.web2py.com/examples/default/videos/&#x27;), (&lt;lazyT &#x27;Free Applications&#x27;&gt;, False, &#x27;http://web2py.com/appliances&#x27;), (&lt;lazyT &#x27;Plugins&#x27;&gt;, False, &#x27;http://web2py.com/plugins&#x27;), (&lt;lazyT &#x27;Layouts&#x27;&gt;, False, &#x27;http://web2py.com/layouts&#x27;), (&lt;lazyT &#x27;Recipes&#x27;&gt;, False, &#x27;http://web2pyslices.com/&#x27;), (&lt;lazyT &#x27;Semantic&#x27;&gt;, False, &#x27;http://web2py.com/semantic&#x27;)]</div></td></tr></table></div></td></tr><tr><td><div><table><tr><td><div>Documentation</div></td></tr><tr><td><div>False</div></td></tr><tr><td><div>http://www.web2py.com/book</div></td></tr><tr><td><div>[(&lt;lazyT &#x27;Preface&#x27;&gt;, False, &#x27;http://www.web2py.com/book/default/chapter/00&#x27;), (&lt;lazyT &#x27;Introduction&#x27;&gt;, False, &#x27;http://www.web2py.com/book/default/chapter/01&#x27;), (&lt;lazyT &#x27;Python&#x27;&gt;, False, &#x27;http://www.web2py.com/book/default/chapter/02&#x27;), (&lt;lazyT &#x27;Overview&#x27;&gt;, False, &#x27;http://www.web2py.com/book/default/chapter/03&#x27;), (&lt;lazyT &#x27;The Core&#x27;&gt;, False, &#x27;http://www.web2py.com/book/default/chapter/04&#x27;), (&lt;lazyT &#x27;The Views&#x27;&gt;, False, &#x27;http://www.web2py.com/book/default/chapter/05&#x27;), (&lt;lazyT &#x27;Database&#x27;&gt;, False, &#x27;http://www.web2py.com/book/default/chapter/06&#x27;), (&lt;lazyT &#x27;Forms and Validators&#x27;&gt;, False, &#x27;http://www.web2py.com/book/default/chapter/07&#x27;), (&lt;lazyT &#x27;Email and SMS&#x27;&gt;, False, &#x27;http://www.web2py.com/book/default/chapter/08&#x27;), (&lt;lazyT &#x27;Access Control&#x27;&gt;, False, &#x27;http://www.web2py.com/book/default/chapter/09&#x27;), (&lt;lazyT &#x27;Services&#x27;&gt;, False, &#x27;http://www.web2py.com/book/default/chapter/10&#x27;), (&lt;lazyT &#x27;Ajax Recipes&#x27;&gt;, False, &#x27;http://www.web2py.com/book/default/chapter/11&#x27;), (&lt;lazyT &#x27;Components and Plugins&#x27;&gt;, False, &#x27;http://www.web2py.com/book/default/chapter/12&#x27;), (&lt;lazyT &#x27;Deployment Recipes&#x27;&gt;, False, &#x27;http://www.web2py.com/book/default/chapter/13&#x27;), (&lt;lazyT &#x27;Other Recipes&#x27;&gt;, False, &#x27;http://www.web2py.com/book/default/chapter/14&#x27;), (&lt;lazyT &#x27;Buy this book&#x27;&gt;, False, &#x27;http://stores.lulu.com/web2py&#x27;)]</div></td></tr></table></div></td></tr><tr><td><div><table><tr><td><div>Community</div></td></tr><tr><td><div>False</div></td></tr><tr><td><div>None</div></td></tr><tr><td><div>[(&lt;lazyT &#x27;Groups&#x27;&gt;, False, &#x27;http://www.web2py.com/examples/default/usergroups&#x27;), (&lt;lazyT &#x27;Twitter&#x27;&gt;, False, &#x27;http://twitter.com/web2py&#x27;), (&lt;lazyT &#x27;Live Chat&#x27;&gt;, False, &#x27;http://webchat.freenode.net/?channels=web2py&#x27;)]</div></td></tr></table></div></td></tr><tr><td><div><table><tr><td><div>Plugins</div></td></tr><tr><td><div>False</div></td></tr><tr><td><div>None</div></td></tr><tr><td><div>[(&#x27;plugin_wiki&#x27;, False, &#x27;http://web2py.com/examples/default/download&#x27;), (&lt;lazyT &#x27;Other Plugins&#x27;&gt;, False, &#x27;http://web2py.com/plugins&#x27;), (&lt;lazyT &#x27;Layout Plugins&#x27;&gt;, False, &#x27;http://web2py.com/layouts&#x27;)]</div></td></tr></table></div></td></tr></table></div></td></tr></table></div></td></tr></table></div></td></tr><tr><td style="font-weight:bold;vertical-align:top;">meta</td><td style="vertical-align:top;">:</td><td><div><table><tr><td style="font-weight:bold;vertical-align:top;">author</td><td style="vertical-align:top;">:</td><td><div>Christopher Koch &lt;kopachris@gmail.com&gt;</div></td></tr><tr><td style="font-weight:bold;vertical-align:top;">description</td><td style="vertical-align:top;">:</td><td><div>BotenAlfred - Python IRC bot</div></td></tr><tr><td style="font-weight:bold;vertical-align:top;">generator</td><td style="vertical-align:top;">:</td><td><div>Web2py Web Framework</div></td></tr><tr><td style="font-weight:bold;vertical-align:top;">keywords</td><td style="vertical-align:top;">:</td><td><div>python, irc, bot, alfred, batman, programming, statistics</div></td></tr></table></div></td></tr><tr><td style="font-weight:bold;vertical-align:top;">models_to_run</td><td style="vertical-align:top;">:</td><td><div><table><tr><td><div>^\\w+\\.py$</div></td></tr><tr><td><div>^default/\\w+\\.py$</div></td></tr><tr><td><div>^default/module_upload/\\w+\\.py$</div></td></tr></table></div></td></tr><tr><td style="font-weight:bold;vertical-align:top;">postprocessing</td><td style="vertical-align:top;">:</td><td><div><table></table></div></td></tr><tr><td style="font-weight:bold;vertical-align:top;">session_client</td><td style="vertical-align:top;">:</td><td><div>208.98.149.218</div></td></tr><tr><td style="font-weight:bold;vertical-align:top;">session_cookie_compression_level</td><td style="vertical-align:top;">:</td><td><div>None</div></td></tr><tr><td style="font-weight:bold;vertical-align:top;">session_cookie_expires</td><td style="vertical-align:top;">:</td><td><div>None</div></td></tr><tr><td style="font-weight:bold;vertical-align:top;">session_cookie_key</td><td style="vertical-align:top;">:</td><td><div>None</div></td></tr><tr><td style="font-weight:bold;vertical-align:top;">session_data_name</td><td style="vertical-align:top;">:</td><td><div>session_data_freebot</div></td></tr><tr><td style="font-weight:bold;vertical-align:top;">session_file</td><td style="vertical-align:top;">:</td><td><div>&lt;open file &#x27;/home/www-data/web2py/applications/freebot/sessions/208.98.149.218-427f20f3-1037-4256-81d1-12590df04aa1&#x27;, mode &#x27;rb+&#x27; at 0x7f691971c660&gt;</div></td></tr><tr><td style="font-weight:bold;vertical-align:top;">session_filename</td><td style="vertical-align:top;">:</td><td><div>/home/www-data/web2py/applications/freebot/sessions/208.98.149.218-427f20f3-1037-4256-81d1-12590df04aa1</div></td></tr><tr><td style="font-weight:bold;vertical-align:top;">session_hash</td><td style="vertical-align:top;">:</td><td><div>6b42b8fbff6bdf3fe88a686137252a08</div></td></tr><tr><td style="font-weight:bold;vertical-align:top;">session_id</td><td style="vertical-align:top;">:</td><td><div>208.98.149.218-427f20f3-1037-4256-81d1-12590df04aa1</div></td></tr><tr><td style="font-weight:bold;vertical-align:top;">session_id_name</td><td style="vertical-align:top;">:</td><td><div>session_id_freebot</div></td></tr><tr><td style="font-weight:bold;vertical-align:top;">session_locked</td><td style="vertical-align:top;">:</td><td><div>True</div></td></tr><tr><td style="font-weight:bold;vertical-align:top;">session_masterapp</td><td style="vertical-align:top;">:</td><td><div>freebot</div></td></tr><tr><td style="font-weight:bold;vertical-align:top;">session_new</td><td style="vertical-align:top;">:</td><td><div>False</div></td></tr><tr><td style="font-weight:bold;vertical-align:top;">session_storage_type</td><td style="vertical-align:top;">:</td><td><div>file</div></td></tr><tr><td style="font-weight:bold;vertical-align:top;">status</td><td style="vertical-align:top;">:</td><td><div>200</div></td></tr><tr><td style="font-weight:bold;vertical-align:top;">subtitle</td><td style="vertical-align:top;">:</td><td><div></div></td></tr><tr><td style="font-weight:bold;vertical-align:top;">title</td><td style="vertical-align:top;">:</td><td><div>Cicero</div></td></tr><tr><td style="font-weight:bold;vertical-align:top;">view</td><td style="vertical-align:top;">:</td><td><div>default/module_upload.html</div></td></tr></table></div>'
tRp189
sS'locals'
p190
(dp191
S'fromlist'
p192
S'[]'
p193
sS'e'
S"KeyError('wolframalpha',)"
p194
sS'name'
p195
S"'wolframalpha'"
p196
sS'level'
p197
S'-1'
p198
sS'itemname'
p199
S"'wolframalpha'"
p200
sS'e3'
p201
S"ImportError('No module named wolframalpha',)"
p202
sS'base_importer'
p203
S'<built-in function __import__>'
p204
sS'globals'
p205
g45
sS'result'
p206
S'None'
p207
sS'items'
p208
S"['', 'home', 'www-data', 'web2py', 'applications', 'freebot']"
p209
sS'modules_prefix'
p210
S"'applications.freebot.modules'"
p211
sS'new_mod'
p212
S"<module 'applications.freebot.modules' from 'applications/freebot/modules/__init__.pyc'>"
p213
sS'e1'
p214
S'ImportError("Cannot import module \'wolframalpha\'",)'
p215
sS'import_tb'
p216
S'None'
p217
sg190
g45
sS'oname'
p218
S"'wolframalpha'"
p219
sssS'traceback'
p220
S'Traceback (most recent call last):\n  File "/home/www-data/web2py/gluon/restricted.py", line 220, in restricted\n    exec ccode in environment\n  File "/home/www-data/web2py/applications/freebot/controllers/default.py", line 449, in <module>\n  File "/home/www-data/web2py/gluon/globals.py", line 385, in <lambda>\n    self._caller = lambda f: f()\n  File "/home/www-data/web2py/gluon/tools.py", line 3287, in f\n    return action(*a, **b)\n  File "/home/www-data/web2py/applications/freebot/controllers/default.py", line 272, in module_upload\n    new_mod = __import__(modname)\n  File "/home/www-data/web2py/gluon/custom_import.py", line 86, in custom_importer\n    raise ImportError, \'Cannot import module %s\' % str(e)\nImportError: Cannot import module \'wolframalpha\'\n'
p221
s.